; Function Attrs: mustprogress uwtable
define hidden noundef i64 @_ZNK6google8protobuf11EnumOptions12ByteSizeLongEv(ptr noundef nonnull align 8 dereferenceable(80) %0) unnamed_addr #3 align 2 {
  %2 = getelementptr inbounds nuw i8, ptr %0, i64 16
  %3 = tail call noundef i64 @_ZNK6google8protobuf8internal12ExtensionSet8ByteSizeEv(ptr noundef nonnull align 8 dereferenceable(24) %2)
  %4 = getelementptr inbounds nuw i8, ptr %0, i64 56
  %5 = load i32, ptr %4, align 8, !tbaa !22
  %6 = sext i32 %5 to i64
  %7 = shl nsw i64 %6, 1
  %8 = add i64 %7, %3
  %9 = getelementptr inbounds nuw i8, ptr %0, i64 64
  %10 = load ptr, ptr %9, align 8, !tbaa !18
  %.not.i.i = icmp eq ptr %10, null
  %11 = getelementptr inbounds nuw i8, ptr %10, i64 8
  %spec.select.i.i = select i1 %.not.i.i, ptr null, ptr %11
  %12 = getelementptr inbounds ptr, ptr %spec.select.i.i, i64 %6
  %.not2021 = icmp eq i32 %5, 0
  br i1 %.not2021, label %._crit_edge, label %.lr.ph

._crit_edge:                                      ; preds = %.lr.ph, %1
  %.0.lcssa = phi i64 [ %8, %1 ], [ %27, %.lr.ph ]
  %13 = getelementptr inbounds nuw i8, ptr %0, i64 40
  %14 = load i32, ptr %13, align 8, !tbaa !58
  %15 = and i32 %14, 3
  %.not = icmp eq i32 %15, 0
  br i1 %.not, label %35, label %29

.lr.ph:                                           ; preds = %1, %.lr.ph
  %.023 = phi i64 [ %27, %.lr.ph ], [ %8, %1 ]
  %.sroa.017.022 = phi ptr [ %28, %.lr.ph ], [ %spec.select.i.i, %1 ]
  %16 = load ptr, ptr %.sroa.017.022, align 8, !tbaa !27
  %17 = tail call noundef i64 @_ZNK6google8protobuf19UninterpretedOption12ByteSizeLongEv(ptr noundef nonnull align 8 dereferenceable(96) %16)
  %18 = trunc i64 %17 to i32
  %19 = or i32 %18, 1
  %20 = tail call range(i32 0, 33) i32 @llvm.ctlz.i32(i32 %19, i1 true)
  %21 = xor i32 %20, 31
  %22 = mul nuw nsw i32 %21, 9
  %23 = add nuw nsw i32 %22, 73
  %24 = lshr i32 %23, 6
  %25 = zext nneg i32 %24 to i64
  %26 = add i64 %17, %.023
  %27 = add i64 %26, %25
  %28 = getelementptr inbounds nuw i8, ptr %.sroa.017.022, i64 8
  %.not20 = icmp eq ptr %28, %12
  br i1 %.not20, label %._crit_edge, label %.lr.ph

29:                                               ; preds = %._crit_edge
  %30 = shl i32 %14, 1
  %31 = and i32 %30, 2
  %32 = zext nneg i32 %31 to i64
  %33 = and i32 %14, 2
  %34 = zext nneg i32 %33 to i64
  %spec.select = add i64 %.0.lcssa, %34
  %spec.select14 = add i64 %spec.select, %32
  br label %35

35:                                               ; preds = %29, %._crit_edge
  %.1 = phi i64 [ %.0.lcssa, %._crit_edge ], [ %spec.select14, %29 ]
  %36 = getelementptr inbounds nuw i8, ptr %0, i64 44
  %37 = tail call noundef i64 @_ZNK6google8protobuf7Message29MaybeComputeUnknownFieldsSizeEmPNS0_8internal10CachedSizeE(ptr noundef nonnull align 8 dereferenceable(16) %0, i64 noundef %.1, ptr noundef nonnull %36)
  ret i64 %37
}